(lp0
Vrubbish.n.01
p1
aVteammate.n.01
p2
aVabruptly.r.01
p3
aVzone.n.01
p4
aVstripe.v.01
p5
aVturquoise.n.01
p6
aVqueue.n.01
p7
aVcouple.n.01
p8
aVtravel.v.01
p9
aVangry.a.01
p10
aVcross.n.01
p11
aVproduce.v.01
p12
aVlaceration.n.01
p13
aVbare.s.01
p14
aVbarber.n.01
p15
aVahead.s.01
p16
aVjenny.n.01
p17
aVfame.n.01
p18
aVtom.n.01
p19
aVhome_plate.n.01
p20
aVfollowing.n.01
p21
aVthorax.n.02
p22
aVladder.n.01
p23
aVripe.a.01
p24
aVfarm.n.01
p25
aVwesley.n.01
p26
aVarticulation.n.02
p27
aVwear.n.01
p28
aVphonograph_record.n.01
p29
aVneck.n.01
p30
aVnod.n.01
p31
aVbrace.n.07
p32
aVthrow.v.01
p33
aVdie.n.01
p34
aVaddition.n.01
p35
aVroom.n.01
p36
aVplant.n.01
p37
aVacme.n.01
p38
aVlieutenant.n.01
p39
aVembrace.n.01
p40
aVplayboy.n.01
p41
aVlake.n.01
p42
aVbedroom.n.01
p43
aVfree.v.01
p44
aVopposition.n.04
p45
aVfields.n.01
p46
aVsesame.n.01
p47
aVquick.n.01
p48
aVcrosstalk.n.01
p49
aVgrave.n.01
p50
aVland.n.04
p51
aVclasp.n.02
p52
aVtax_return.n.01
p53
aVwater.n.01
p54
aVsister.n.01
p55
aVplug.n.01
p56
aVbritish_shilling.n.01
p57
aVseashell.n.01
p58
aVshave.v.01
p59
aVdetect.v.01
p60
aVseat.n.01
p61
aVdick.n.01
p62
aVchewing_gum.n.01
p63
aVunite.v.03
p64
aVcoke.n.01
p65
aVtouch.n.01
p66
aVheadlight.n.01
p67
aVrobert.n.01
p68
aVroll.v.01
p69
aVleft.n.01
p70
aVhead.n.01
p71
aVroth.n.01
p72
aVasleep.a.01
p73
aVriver.n.01
p74
aVsimple.n.01
p75
aVinquirer.n.01
p76
aVserve.v.01
p77
aVrow.n.01
p78
aVabdomen.n.01
p79
aVstare.n.01
p80
aVbrand.n.02
p81
aVshoe.n.01
p82
aVmichigan.n.03
p83
aVsevere.s.01
p84
aVhandle.n.01
p85
aVlashkar-e-taiba.n.01
p86
aVplaying.n.01
p87
aVharmonious.a.01
p88
aVtalk.n.01
p89
aVspray.n.01
p90
aVday.n.01
p91
aVstop.n.01
p92
aVskirt.n.01
p93
aVbaton.n.01
p94
aVwake_up.v.02
p95
aVdark.n.01
p96
aVwatergate.n.01
p97
aVchoir.n.01
p98
aVdisturbance.n.02
p99
aVwindshield.n.01
p100
aVmountain.n.01
p101
aVblowing.n.01
p102
aVcream.n.01
p103
aVwisecrack.n.01
p104
aVhelium.n.01
p105
aVshoulder.n.01
p106
aVshoot.n.01
p107
aVwaitress.n.01
p108
aVcigarette.n.01
p109
aVbunk.n.01
p110
aVcheck.n.01
p111
aVmow.v.01
p112
aVraving.n.01
p113
aValabama.n.01
p114
aVinject.v.01
p115
aVmusic.n.01
p116
aVbalcony.n.01
p117
aVbasin.n.01
p118
aVgaze.v.01
p119
aVhope.n.01
p120
aVenemy.n.01
p121
aVsill.n.01
p122
aVfollow.v.01
p123
aVrange.n.02
p124
aVpeer.v.01
p125
aVclash.v.02
p126
aVlawn.n.01
p127
aVdrum.n.01
p128
aVsquare.n.01
p129
aVpast.n.01
p130
aVfirework.n.01
p131
aVcontrol.n.01
p132
aVpursuit.n.01
p133
aVfrond.n.01
p134
aVlurch.n.04
p135
aVstudio.n.01
p136
aVtrunk.n.01
p137
aVbeer.n.01
p138
aVstir.v.01
p139
aVinterest.v.01
p140
aVbus.n.01
p141
aVhesitantly.r.01
p142
aVscreen.n.04
p143
aVstumble.v.02
p144
aVcomputer.n.01
p145
aVscreen.n.01
p146
aVknee_bend.n.01
p147
aVstreet.n.01
p148
aVwiden.v.01
p149
aVdirection.n.01
p150
aVsneak.n.01
p151
aVsqueak.n.01
p152
aVsanta_claus.n.01
p153
aVpace.n.01
p154
aVclear.n.01
p155
aVmesa.n.01
p156
aVcamp.n.01
p157
aVclose.v.01
p158
aVhappy.a.01
p159
aVnike.n.01
p160
aVfloat.n.01
p161
aVleader.n.01
p162
aVcandle.n.01
p163
aVinactive.s.10
p164
aVboat.n.01
p165
aVconstant.n.01
p166
aVwashington.n.01
p167
aVlawn_mower.n.01
p168
aVrestlessly.r.01
p169
aVhost.n.01
p170
aVpolice.n.01
p171
aVwounded.n.01
p172
aVdrive.n.06
p173
aVraise.n.01
p174
aVimage.n.01
p175
aVcrap.n.01
p176
aVace.n.03
p177
aVmaterial.n.01
p178
aVdirect.v.01
p179
aVdad.n.01
p180
aVjunior.n.01
p181
aVincredulous.a.01
p182
aVhover.v.01
p183
aVson.n.01
p184
aVhandwriting.n.01
p185
aVcloser.n.01
p186
aVchoice.n.01
p187
aVring.n.01
p188
aVplayer.n.01
p189
aVsprawl.n.02
p190
aVbeacon.n.03
p191
aVgown.n.01
p192
aVdegree_fahrenheit.n.01
p193
aVgesture.n.02
p194
aVexit.n.01
p195
aVdream.n.01
p196
aVmouthpiece.n.01
p197
aVpillow.n.01
p198
aVcheckup.n.01
p199
aVbriefly.r.01
p200
aVdistance.n.01
p201
aVheadband.n.01
p202
aVhonkytonk.n.01
p203
aVpack.v.01
p204
aVbandage.n.01
p205
aVdecelerate.v.01
p206
aVsmiley.n.01
p207
aVmarch.n.01
p208
aVaddress.v.01
p209
aVsee.n.01
p210
aVsuddenly.r.01
p211
aVsmoothly.r.01
p212
aVbomb.n.01
p213
aVcivilian.n.01
p214
aVshort_pants.n.01
p215
aVadjust.v.01
p216
aVform.n.01
p217
aVbarroom.n.01
p218
aVcarefully.r.01
p219
aVradiance.n.02
p220
aVmodel.n.01
p221
aVsquadron.n.01
p222
aVspectator.n.01
p223
aVleaning.n.01
p224
aVintermediate.n.01
p225
aVsunlight.n.01
p226
aVnight.n.01
p227
aVshirt.n.01
p228
aVwork.n.01
p229
aVpalm.n.01
p230
aVblade.n.01
p231
aVcamouflage.v.01
p232
aVspectacles.n.01
p233
aVchurch.n.01
p234
aVforest.n.01
p235
aVcorner.n.01
p236
aVwhip.n.01
p237
aVfast.a.01
p238
aVquarterback.n.01
p239
aVpull.v.01
p240
aVcap.n.01
p241
aVgray.n.01
p242
aVfootball.n.01
p243
aVstonecutter.n.01
p244
aVhaste.n.02
p245
aVatlantic.n.01
p246
aVhanging.n.01
p247
aVliquor.n.01
p248
aVform.n.03
p249
aVblack.n.01
p250
aVliterature.n.02
p251
aVramp.n.01
p252
aVnegotiation.n.01
p253
aVexclude.v.01
p254
aVfully.r.01
p255
aVmist.v.01
p256
aVveteran.n.01
p257
aVlennon.n.01
p258
aVdoctor.n.01
p259
aVsail.n.01
p260
aVtightly.r.01
p261
aVtorso.n.01
p262
aVbring.v.01
p263
aVhome.n.01
p264
aVbaseball_club.n.01
p265
aVweb.n.01
p266
aVdraw.n.01
p267
aVstick.n.01
p268
aVfillet.n.05
p269
aVbustle.n.01
p270
aVfall.n.01
p271
aVwright.n.01
p272
aVscope.n.01
p273
aVmicrophone.n.01
p274
aVreach.v.01
p275
aVcan.n.01
p276
aVexert.v.01
p277
aVrod.n.01
p278
aVmale_child.n.01
p279
aVhole.n.01
p280
aVsymbol.n.01
p281
aVcampus.n.01
p282
aVcolumn.n.05
p283
aVrocket.n.01
p284
aVwading.n.01
p285
aVdismiss.v.01
p286
aVjungle.n.01
p287
aVawkward.s.01
p288
aVjoust.n.01
p289
aVdirty.v.01
p290
aVlift.n.01
p291
aVwave.n.01
p292
aVamble.n.01
p293
aVhappily.r.01
p294
aVfaux_pas.n.01
p295
aVlatrine.n.01
p296
aVpainfully.r.01
p297
aVpajama.n.01
p298
aVbuttonhole.n.01
p299
aVpath.n.04
p300
aVcourage.n.01
p301
aVair.n.01
p302
aVfilm_over.v.01
p303
aVabsently.r.01
p304
aVcornfield.n.01
p305
aVblond.n.01
p306
aVsmall.n.01
p307
aVupper_berth.n.01
p308
aVimpression.n.01
p309
aVraincoat.n.01
p310
aVland.n.01
p311
aVneighbor.n.01
p312
aVconfetti.n.01
p313
aVgully.n.01
p314
aVdescend.v.01
p315
aVmove.n.01
p316
aVrappel.n.01
p317
aVstick_out.v.01
p318
aVsea.n.01
p319
aVunnoticed.a.01
p320
aVchew.n.02
p321
aVentree.n.02
p322
aVserve.n.01
p323
aVimpassively.r.01
p324
aVdress.v.01
p325
aVgaze.n.01
p326
aVscuff.v.01
p327
aVbroom.n.01
p328
aVdismay.v.02
p329
aVrenovate.v.01
p330
aVlying.n.01
p331
aVlie.n.01
p332
aVproudly.r.01
p333
aVembrace.v.02
p334
aVchange_by_reversal.v.01
p335
aVstairs.n.01
p336
aVvarsity.n.01
p337
aVlip.n.01
p338
aVgood.n.01
p339
aVviolent.a.01
p340
aVstanding.n.01
p341
aVdreamily.r.01
p342
aVchristmas.n.01
p343
aVparts.n.01
p344
aVfence.n.01
p345
aVinternet.n.01
p346
aVreturn.n.06
p347
aVinstrument.n.01
p348
aVfire.n.03
p349
aVrise.n.04
p350
aVrock.v.01
p351
aVpicket.n.05
p352
aVcleverly.r.01
p353
aVbattle.n.01
p354
aVbed.n.01
p355
aVscreening.n.01
p356
aVevil.n.01
p357
aVbase.n.01
p358
aVcircle.n.01
p359
aVhand.n.01
p360
aVgame.n.01
p361
aVsupport.n.01
p362
aVbase.n.08
p363
aVdeck.n.01
p364
aVleather.n.01
p365
aVbarbecue.n.01
p366
aVletter.n.01
p367
aVmemorial.n.03
p368
aVhelmet.n.01
p369
aVdecoration.n.02
p370
aVsparse.s.01
p371
aVsyringe.n.01
p372
aVportrayal.n.01
p373
aVgrab.n.01
p374
aVpump.n.01
p375
aVcry.n.01
p376
aVascent.n.01
p377
aVcook.n.01
p378
aVmorning.n.01
p379
aVapproach.n.02
p380
aVpull.n.01
p381
aVrose.n.01
p382
aVsoldier.n.01
p383
aVresonate.v.01
p384
aVmonroe.n.01
p385
aVlocate.v.01
p386
aVpeace.n.01
p387
aVskid.v.01
p388
aVwhite.n.01
p389
aVshyly.r.01
p390
aVlegs.n.01
p391
aVcling.n.01
p392
aVconvulsive.s.01
p393
aVice.n.01
p394
aVbottle.n.01
p395
aVcartridge_holder.n.01
p396
aVlarge.a.01
p397
aVdry.n.01
p398
aVcurious.s.01
p399
aVten.n.01
p400
aVoak.n.01
p401
aVside.n.01
p402
aVhair.n.01
p403
aVhospital.n.01
p404
aVtoilet.n.01
p405
aVtarpaulin.n.01
p406
aVoutdated.s.01
p407
aVtopographic_point.n.01
p408
aVtire.v.01
p409
aVwarm.v.01
p410
aVad.n.01
p411
aVpresley.n.01
p412
aVfat.n.01
p413
aVhotel.n.01
p414
aVblanket.n.01
p415
aVconvict.n.01
p416
aVwheat.n.01
p417
aValbum.n.01
p418
aVflower.n.01
p419
aVhayfield.n.01
p420
aVbarefoot.s.01
p421
aVpiece.n.01
p422
aVbuffet.n.01
p423
aVcatching.n.01
p424
aVintrigue.v.01
p425
aVheterosexual.n.01
p426
aVtower.n.01
p427
aVspatter.n.02
p428
aVpark.v.01
p429
aVwhirl.n.01
p430
aVwhirl.n.02
p431
aVparapet.n.01
p432
aVhitchhike.v.01
p433
aVquarterdeck.n.01
p434
aVrope.n.01
p435
aVgrandstand.n.01
p436
aVtablet.n.01
p437
aVdormitory.n.01
p438
aVhappen.v.01
p439
aVcar.n.01
p440
aVthinking.n.01
p441
aVknee.n.01
p442
aVphase.n.01
p443
aVkneel.n.01
p444
aVcone.n.01
p445
aVreagan.n.01
p446
aVworking.n.01
p447
aVcurb.n.01
p448
aVevening.n.01
p449
aVlurch.n.01
p450
aVmelancholic.n.01
p451
aVpaint.v.01
p452
aVbreathing.n.01
p453
aVdrag.n.01
p454
aVbare.v.01
p455
aVsteppe.n.01
p456
aVbusker.n.01
p457
aVdust.n.01
p458
aVlasciviously.r.01
p459
aVbusy.v.01
p460
aVdeep.n.01
p461
aVgarden.n.01
p462
aVgreat.n.01
p463
aVmeet.n.01
p464
aVopen.n.01
p465
aVeyelid.n.01
p466
aVwall.n.01
p467
aVnurse.n.01
p468
aVfull_moon.n.01
p469
aVintervene.v.01
p470
aVmarch.v.01
p471
aVsuit.n.01
p472
aVpedal_point.n.01
p473
aVrusty.s.01
p474
aVwedding.n.01
p475
aVknoll.n.01
p476
aVmoonlight.n.01
p477
aVtemple.n.01
p478
aVcenter.n.01
p479
aVpowerful.a.01
p480
aVrush.v.01
p481
aVwade.n.01
p482
aVrice.n.01
p483
aVlead.n.01
p484
aVexplosion.n.01
p485
aVvibrant.s.01
p486
aVhook.v.01
p487
aVcombatant.n.01
p488
aVtelephone.n.01
p489
aVwoman.n.01
p490
aVrear.n.01
p491
aVpresident.n.01
p492
aVrobe.n.01
p493
aVfamiliar.n.01
p494
aVseashore.n.01
p495
aVcocaine.n.01
p496
aVrest.v.01
p497
aVsystem.n.01
p498
aVwatch.v.01
p499
aVposter.n.01
p500
aVartilleryman.n.01
p501
aVrise.n.01
p502
aVnapalm.n.01
p503
aVpush.v.01
p504
aVcaravan.n.01
p505
aVthousand.n.01
p506
aVpier.n.01
p507
aVheavily.r.01
p508
aVflight.n.02
p509
aVaim.v.01
p510
aVsun.n.01
p511
aVglass.n.01
p512
aVrain.n.01
p513
aVantic.s.01
p514
aVbeginning.n.01
p515
aVrock.n.01
p516
aVbag.n.04
p517
aVacid.n.02
p518
aVbag.n.06
p519
aVdriver.n.01
p520
aVflag.n.01
p521
aVavant-garde.n.01
p522
aVamyotrophic_lateral_sclerosis.n.01
p523
aVhug.n.01
p524
aVarmy.n.01
p525
aVlustfully.r.01
p526
aVolive.n.01
p527
aVweapon.n.01
p528
aVgarment.n.01
p529
aVcreeps.n.01
p530
aVquarrel.n.01
p531
aVslowly.r.01
p532
aVwalk.n.01
p533
aVshore.n.01
p534
aVdance.n.01
p535
aVgrass.n.01
p536
aVunlock.v.01
p537
aVextremum.n.02
p538
aVbarbershop.n.01
p539
aVpeople.n.01
p540
aVseries.n.01
p541
aVdoor.n.01
p542
aVfreshness.n.03
p543
aVribbon.n.01
p544
aVhayloft.n.01
p545
aVpantie.n.01
p546
aVhouse.n.01
p547
aVclosely.r.03
p548
aVbright.a.01
p549
aVhat.n.01
p550
aVcontinuous.a.01
p551
aVfifty.n.01
p552
aVstrabismus.n.01
p553
aVglum.s.01
p554
aVresort_area.n.01
p555
aVpassenger.n.01
p556
aVgeneral.n.01
p557
aVstroke.n.05
p558
aVthickness.n.01
p559
aVtarget.n.01
p560
aVhigh.n.01
p561
aVpopulace.n.01
p562
aVbackpack.n.01
p563
aVreact.v.01
p564
aVdrink.n.01
p565
aVdriveway.n.01
p566
aVbedpan.n.01
p567
aVangler.n.01
p568
aVwind.n.01
p569
aVtraffic.n.01
p570
aVbloody.v.01
p571
aVdoorway.n.01
p572
aVhallway.n.01
p573
aVcompanion.n.01
p574
aVanswer.n.01
p575
aVsurround.v.01
p576
aVshuffle.n.01
p577
aVbalance.v.01
p578
aVscreenplay.n.01
p579
aVdress.n.01
p580
aVphial.n.01
p581
aVnewspaper.n.01
p582
aVshingle.n.01
p583
aVaccurately.r.01
p584
aVheading.n.01
p585
aVdistribute.v.01
p586
aVblue.n.01
p587
aVwavy.s.01
p588
aVbrooding.n.01
p589
aVreluctantly.r.01
p590
aVreading.n.01
p591
aVtimid.n.01
p592
aVmilk.n.01
p593
aVtrudge.n.01
p594
aVpeep.v.01
p595
aVwheel.n.01
p596
aVjog.n.02
p597
aVshy.n.01
p598
aVdisco.n.01
p599
aVerosion.n.01
p600
aVball.n.01
p601
aVfrigid.s.03
p602
aVsoft.a.01
p603
aVbloomers.n.01
p604
aVball.n.08
p605
aVcoach.n.01
p606
aVway.n.05
p607
aVenvelope.n.01
p608
aVpicture.n.01
p609
aVasphalt.n.01
p610
aVsoil.n.02
p611
aVfaint.n.01
p612
aVvietnam.n.01
p613
aVface.n.01
p614
aVwait.n.02
p615
aVstomach.n.01
p616
aVaxial_rotation.n.01
p617
aVbrush.n.01
p618
aVweaponry.n.01
p619
aVboom.n.01
p620
aVbind.v.04
p621
aVintimidate.v.01
p622
aVoriginate.v.01
p623
aVdiffident.a.02
p624
aVfloral.s.01
p625
aVapproach.n.05
p626
aVbeat_generation.n.01
p627
aVrestaurant.n.01
p628
aVtennis.n.01
p629
aVoverriding.s.01
p630
aVwrap.v.01
p631
aVsign.n.01
p632
aVdiversion.n.01
p633
aVpaper.n.01
p634
aVshove.n.01
p635
aVbox.n.01
p636
aVpontoon.n.01
p637
aVballad.n.01
p638
aVheaves.n.01
p639
aVjam.n.01
p640
aVpatio.n.01
p641
aVyork.n.01
p642
aVeyes.n.01
p643
aVcontinue.v.03
p644
aVlap.n.01
p645
aVcontinue.v.01
p646
aVreflect.v.01
p647
aVwar.n.01
p648
aVsock.n.01
p649
aVfall.v.01
p650
aVearth.n.01
p651
aVmachine.n.01
p652
aVstrap.v.01
p653
aVjet.n.01
p654
aVcity.n.01
p655
aVapproach.n.01
p656
aVsquad.n.01
p657
aVpickup.n.01
p658
aVwhite.s.04
p659
aVbehalf.n.01
p660
aVplace.n.06
p661
aVcuddle.v.01
p662
aVgeorge.n.01
p663
aVbumper.n.01
p664
aVwashstand.n.01
p665
aVcocoa.n.01
p666
aVmississippi.n.01
p667
aVweigh.v.01
p668
aVblow.n.01
p669
aVburns.n.01
p670
aVleaf.n.01
p671
aVdrop.n.01
p672
aVceiling.n.01
p673
aVbrow.n.01
p674
aVcaress.v.01
p675
aVempty.n.01
p676
aVgroup.n.01
p677
aVexpect.v.03
p678
aVvest.n.01
p679
aVasian.n.01
p680
aVwaiter.n.01
p681
aVdrive.n.01
p682
aVgary.n.01
p683
aVbent.n.04
p684
aVshadow.n.01
p685
aVbent.n.01
p686
aVcoast.v.01
p687
aVopen.s.12
p688
aVsound.n.01
p689
aVrailing.n.01
p690
aVassistant.n.01
p691
aVslightly.r.01
p692
aVstadium.n.01
p693
aVtall.n.01
p694
aVnursery.n.01
p695
aVma.n.01
p696
aVrestless.s.01
p697
aVschool.n.01
p698
aVtormentor.n.01
p699
aVlicense.n.01
p700
aVcalmly.r.01
p701
aVgarbage.n.01
p702
aVsee.v.05
p703
aVtransmission.n.01
p704
aVbottom.n.01
p705
aVfist.n.01
p706
aVmidst.n.01
p707
aVput_option.n.02
p708
aVuniverse.n.01
p709
aVtwirl.v.01
p710
aVflies.n.01
p711
aVprosthesis.n.01
p712
aVfoot.n.01
p713
aVtaw.n.02
p714
aVsleeping.n.01
p715
aVsnake.n.01
p716
aVattach_to.v.01
p717
aVunresponsive.a.01
p718
aVsweeping.n.01
p719
aVpanel.n.01
p720
aVpensively.r.01
p721
aVdedication.n.01
p722
aVtenderly.r.01
p723
aVblock.n.01
p724
aVwindow.n.01
p725
aVrevolver.n.01
p726
aVnod.v.01
p727
aVshow.n.01
p728
aVframe.v.01
p729
aVthrow.n.01
p730
aVgroom.n.01
p731
aVfeather.n.01
p732
aVsunglasses.n.01
p733
aVannoy.v.01
p734
aVnothingness.n.01
p735
aVprivate.n.01
p736
aVreceding.n.01
p737
aVstatue.n.01
p738
aVdevice.n.01
p739
aVwave.n.05
p740
aVbouquet.n.01
p741
aVinaugurate.v.01
p742
aVblood.n.01
p743
aVmelancholy.n.01
p744
aVsitting.n.01
p745
aVunderpants.n.01
p746
aVwork_force.n.01
p747
aVorder.n.01
p748
aVdepend.v.01
p749
aVeden.n.01
p750
aVsteal.v.02
p751
aVflock.n.01
p752
aVdissenter.n.01
p753
aVboring.s.01
p754
aVunmoved.a.01
p755
aVbrown.n.01
p756
aVburning.n.01
p757
aVmighty.s.01
p758
aVbuilding.n.01
p759
aVsalt_lick.n.01
p760
aVurgently.r.01
p761
aVfictional_character.n.01
p762
aVapple.n.01
p763
aVdistrict.n.01
p764
aVrocky.s.01
p765
aVcrying.n.01
p766
aVhelicopter.n.01
p767
aVblouse.n.01
p768
aVram.v.01
p769
aVcloudy.s.03
p770
aVwatch.n.01
p771
aVcloudy.s.01
p772
aVyellow.n.01
p773
aVdrawer.n.01
p774
aVsadly.r.01
p775
aVflower_people.n.01
p776
aVpinche.n.01
p777
aVtable.n.01
p778
aVchest_of_drawers.n.01
p779
aVslope.n.01
p780
aVfleet.n.01
p781
aVkennedy.n.01
p782
aVcatcher.n.01
p783
aVthoughtfully.r.01
p784
aVmotto.n.01
p785
aVreduce.v.20
p786
aVjohnson.n.01
p787
aVcast.n.03
p788
aVsomersault.n.01
p789
aVimmune.s.03
p790
aVbosom.n.01
p791
aVorange.n.01
p792
aVkiss.n.01
p793
aVstate.n.04
p794
aVhands.n.01
p795
aVtrack.n.09
p796
aVsandal.n.01
p797
aVresolutely.r.01
p798
aVfield.n.01
p799
aVred.n.01
p800
aVeye.n.01
p801
aVfigure.n.01
p802
aVwreath.n.01
p803
aVemblem.n.01
p804
aVmother.n.01
p805
aVcrown.n.07
p806
aVbeetle.n.01
p807
aVstiff.n.01
p808
aVsoak.v.01
p809
aVback.n.01
p810
aVcrown.n.01
p811
aVtumble.v.01
p812
aVhosiery.n.01
p813
aVbreakfast.n.01
p814
aVpark.n.01
p815
aVhurry.n.01
p816
aVshock.v.01
p817
aVrub.n.02
p818
aVline.v.01
p819
aVgospel.n.01
p820
aVbill.n.01
p821
aVseaport.n.01
p822
aVgrate.n.03
p823
aVyelling.n.01
p824
aVtouchdown.n.01
p825
aVcamera.n.01
p826
aVchair.n.01
p827
aVashore.r.01
p828
aVpinch.v.01
p829
aVtear.v.01
p830
aVdepth.n.01
p831
aVelectron_volt.n.01
p832
aVmast.n.01
p833
aVstump.n.01
p834
aVthings.n.01
p835
aVback.r.02
p836
aVpassenger_car.n.01
p837
aVbaggage.n.01
p838
aVreject.v.01
p839
aVpuff.n.01
p840
aVbackground.n.01
p841
aVseclude.v.01
p842
aVpavement.n.01
p843
aVguy.n.01
p844
aVtouch.v.01
p845
aVsit.v.01
p846
aVcigar.n.01
p847
aVeveryday.s.01
p848
aVbeard.n.01
p849
aVarm.n.01
p850
aVracket.n.01
p851
aVsport.n.01
p852
aVdetermine.v.01
p853
aVjump.n.01
p854
aVsing.v.01
p855
aVone-half.n.01
p856
aVapartment.n.01
p857
aVdesert.n.01
p858
aVoverwhelm.v.01
p859
aVfather.n.01
p860
aVadolescent.n.01
p861
aVcrosse.n.01
p862
aVluck.n.02
p863
aVgleam.n.02
p864
aVplay.n.01
p865
aVwords.n.01
p866
aVburst.v.01
p867
aVboot.n.01
p868
aVdimly.r.01
p869
aVscrub.n.01
p870
aVmoon.n.01
p871
aVmetallic_element.n.01
p872
aVletters.n.01
p873
aVwince.n.01
p874
aVradiotelephone.n.01
p875
aVdizziness.n.01
p876
aVindication.n.01
p877
aVline.n.01
p878
aVmultiple.n.01
p879
aVstalk.n.03
p880
aVcrouch.n.01
p881
aVsofa.n.01
p882
aVaudience.n.01
p883
aVoverboard.r.01
p884
aVheel.n.01
p885
aVhamper.v.01
p886
aVconceited.s.01
p887
aVpost.n.01
p888
aVpunch.n.01
p889
aVtartan.n.01
p890
aVstiffly.r.01
p891
aVsatchel.n.01
p892
aVamputate.v.01
p893
aVbat.n.01
p894
aVguitar.n.01
p895
aVplastic.n.01
p896
aVbag.n.01
p897
aVbegin.n.01
p898
aVroll.v.12
p899
aVmirror.n.01
p900
aVdisappear.v.01
p901
aVstaff.n.01
p902
aVlout.n.01
p903
aVupright.n.01
p904
aVparent.n.01
p905
aVcrowd.n.01
p906
aVmusician.n.01
p907
aVexpress.n.01
p908
aVpetticoat.n.01
p909
aVbrink.n.01
p910
aVhigher.s.01
p911
aVtrain.n.01
p912
aVgold.n.01
p913
aVmoney.n.01
p914
aVbrassiere.n.01
p915
aVlower_berth.n.01
p916
aVdownstairs.a.01
p917
aVmaestro.n.01
p918
aVlanding.n.01
p919
aVpour.v.01
p920
aVabdominal.n.01
p921
aVbuttock.n.01
p922
aVmemorial.n.01
p923
aVdourly.r.01
p924
aVsky.n.01
p925
aVwholly.r.01
p926
aVsocket.n.01
p927
aVsoftly.r.01
p928
aVunaffected.a.01
p929
aVguitarist.n.01
p930
aVsink.n.01
p931
aVfloor.n.01
p932
aVitem.n.01
p933
aVlarge.n.01
p934
aVuniform.n.01
p935
aVmissus.n.01
p936
aVcatch.n.01
p937
aVgrandma.n.01
p938
aVbook.n.01
p939
aVcurtain.n.01
p940
aVhelm.n.01
p941
aVchild.n.01
p942
aVdisgust.v.01
p943
aVflank.n.01
p944
aVcolorful.a.01
p945
aVobelisk.n.01
p946
aVfalls.n.01
p947
aVgun.n.01
p948
aVear.n.01
p949
aVcloud.n.01
p950
aVbloom.v.01
p951
aVpoliceman.n.01
p952
aVinspect.v.01
p953
aVlysergic_acid_diethylamide.n.01
p954
aVreceiver.n.01
p955
aVflit.n.01
p956
aVdoggedly.r.01
p957
aVsmile.n.01
p958
aVflat.n.01
p959
aVovertake.v.01
p960
aVglance.v.01
p961
aVpilothouse.n.01
p962
aVunbutton.v.01
p963
aVfront.n.01
p964
aVtrouser.n.01
p965
aVbaseball.n.01
p966
aVdepress.v.01
p967
aVraise.v.01
p968
aVlaugh.n.01
p969
aVwound.n.01
p970
aVleg.n.01
p971
aVgrimly.r.01
p972
aVautonomy.n.01
p973
aVemptiness.n.01
p974
aVbolide.n.01
p975
aVherbert.n.01
p976
aVconfuse.v.01
p977
aVfume.v.01
p978
aVpatient.n.01
p979
aVopen.v.01
p980
aVchapel.n.01
p981
aVwrite.v.01
p982
aVwayside.n.01
p983
aVnightgown.n.01
p984
aVvertically.r.01
p985
aVpatrol.n.01
p986
aVspeaker.n.01
p987
aVknock.n.01
p988
aVforward.n.01
p989
aVship.n.01
p990
aVclearing.n.01
p991
aVbrake_system.n.01
p992
aVsmaller.s.01
p993
aVcrystalline.s.03
p994
aVphotograph.n.01
p995
aVretention.n.01
p996
aVseesaw.n.01
p997
aVdecompression_sickness.n.01
p998
aVpackage.n.01
p999
aVbridge.n.01
p1000
aVarmband.n.01
p1001
aVspine.n.03
p1002
aVbooklet.n.01
p1003
aVlodge.v.02
p1004
aVtoothbrush.n.01
p1005
aVshare.n.01
p1006
aVthomas.n.01
p1007
aVshop.n.01
p1008
aVtraverse.v.01
p1009
aVforty.n.01
p1010
aVsideline.n.01
p1011
aVhanker.v.01
p1012
aVentrance.n.01
p1013
aVlow.n.01
p1014
aVpocket.n.01
p1015
aVset.n.01
p1016
aVglaser.n.01
p1017
aVbroadcast.n.01
p1018
aVmovie.n.01
p1019
aVdrag.v.01
p1020
aVend.n.01
p1021
aVcheek.n.01
p1022
aVgilbert.n.01
p1023
aVnose.n.01
p1024
aVsemivowel.n.01
p1025
aVgrenade.n.01
p1026
aVsmoke.n.07
p1027
aVsmoke.n.01
p1028
aVdeep.a.01
p1029
aVexplode.v.01
p1030
aVcab.n.03
p1031
aVhedge.v.01
p1032
aVflex.v.01
p1033
aVswing.n.04
p1034
aVrewire.v.01
p1035
aVparty.n.01
p1036
aVswing.n.01
p1037
aVimpoverish.v.01
p1038
aVpeek.n.01
p1039
aVremainder.n.01
p1040
aVguidance.n.02
p1041
aVbird.n.01
p1042
aVanxiously.r.01
p1043
aVrun.n.01
p1044
aVlife.n.02
p1045
aVhandkerchief.n.01
p1046
aVbend.n.01
p1047
aVrun.n.05
p1048
aVpanicky.s.01
p1049
aVscurry.v.01
p1050
aVidler.n.01
p1051
aVaward.n.02
p1052
aVtop.n.01
p1053
aVtop.n.02
p1054
aVfishing.n.01
p1055
aVrace.n.01
p1056
aVmilitary_officer.n.01
p1057
aVholder.n.01
p1058
aVman.n.01
p1059
aVhairline.n.01
p1060
aVstar.n.01
p1061
aVslap.n.01
p1062
aVhip.n.01
p1063
aVdrunkard.n.01
p1064
aVammunition.n.01
p1065
aVtan.v.01
p1066
aVrubber.n.01
p1067
aVchink.n.03
p1068
aVhollywood.n.01
p1069
aVanimation.n.01
p1070
aVstorm.n.01
p1071
aVstrike.n.01
p1072
aVcrash.v.01
p1073
aVimperativeness.n.01
p1074
aVcard_game.n.01
p1075
aVflask.n.01
p1076
aVdistraught.s.01
p1077
aVpush.n.01
p1078
aVsleeve.n.01
p1079
aVbase_on_balls.n.01
p1080
aVcomposure.n.01
p1081
aVescarpment.n.01
p1082
aVremains.n.01
p1083
aVamuse.v.01
p1084
aVnetwork.n.01
p1085
aVcarry.n.01
p1086
aVfour.n.01
p1087
aVmouth.n.01
p1088
aVspace.n.01
p1089
aVroommate.n.01
p1090
aVbank.n.01
p1091
aVlook.v.01
p1092
aVlook.v.02
p1093
aVfinger.n.01
p1094
aVreporter.n.01
p1095
aVyoung.n.01
p1096
aVsmuggler.n.01
p1097
aVwildly.r.01
p1098
aVembarrass.v.01
p1099
aVdressing.n.01
p1100
aVoffice.n.01
p1101
aVdiscovery.n.03
p1102
aVinscription.n.01
p1103
aVnecktie.n.01
p1104
aVrapid_climb.n.01
p1105
aVporch.n.01
p1106
aVmagazine.n.01
p1107
aVinjury.n.01
p1108
aVtransportation.n.02
p1109
aVshort.n.01
p1110
aVroad.n.01
p1111
aVmind.n.01
p1112
aVapparel.n.01
p1113
aVnixon.n.01
p1114
aVtobacco.n.01
p1115
aVgust.n.01
p1116
aVhancock.n.01
p1117
aVrunt.n.01
p1118
aVlonger.n.01
p1119
aVoverlook.n.01
p1120
aVsouthwestern.n.01
p1121
aVwide.a.01
p1122
aVrobin.n.01
p1123
aVhit.n.01
p1124
aVlight.n.01
p1125
aVstretch.v.01
p1126
aVthrowster.n.01
p1127
aVperplex.v.01
p1128
aVelongate.v.01
p1129
aVdallas.n.01
p1130
aVstool.n.01
p1131
aVtext.n.01
p1132
aVtree.n.01
p1133
aVtelevision.n.01
p1134
aVboarding.n.01
p1135
aVspring.n.01
p1136
aVjacket.n.01
p1137
aVbushy.s.01
p1138
aVlincoln.n.01
p1139
aVcrawl.n.01
p1140
aVstrap.n.01
p1141
aVnational.n.01
p1142
aVunderwear.n.01
p1143
aVpurple.n.01
p1144
aVsodium_carbonate.n.01
p1145
aVhanks.n.01
p1146
aVimpact.n.01
p1147
aVcalf.n.01
p1148
aVflow.n.01
p1149
aVgirl.n.01
p1150
aVflabbergast.v.01
p1151
aVstopping_point.n.01
p1152
aVtray.n.01
p1153
aVwheelchair.n.01
p1154
aVbench.n.01
p1155
a.